; Function Attrs: null_pointer_is_valid sspstrong uwtable
define internal zeroext i1 @df_func_ip_is_rfc1918(ptr noundef readonly captures(none) %0, i32 %1, ptr noundef %2) #0 {
  %.val = load ptr, ptr %0, align 8
  %4 = icmp eq ptr %.val, null
  br i1 %4, label %df_func_ip_is_any.exit, label %.preheader.i

.preheader.i:                                     ; preds = %3
  %5 = getelementptr inbounds nuw i8, ptr %.val, i64 8
  %6 = load i32, ptr %5, align 8
  %.not.i = icmp eq i32 %6, 0
  br i1 %.not.i, label %._crit_edge.i, label %.lr.ph.i

._crit_edge.i:                                    ; preds = %ipv4_is_rfc1918.exit, %.preheader.i
  %7 = tail call zeroext i1 @df_cell_is_empty(ptr noundef %2)
  %8 = xor i1 %7, true
  br label %df_func_ip_is_any.exit

.lr.ph.i:                                         ; preds = %.preheader.i, %ipv4_is_rfc1918.exit
  %indvars.iv.i = phi i64 [ %indvars.iv.next.i, %ipv4_is_rfc1918.exit ], [ 0, %.preheader.i ]
  %9 = tail call ptr @fvalue_new(i32 noundef 2)
  %10 = load ptr, ptr %.val, align 8
  %11 = getelementptr ptr, ptr %10, i64 %indvars.iv.i
  %12 = load ptr, ptr %11, align 8
  %13 = tail call i32 @fvalue_type_ftenum(ptr noundef %12)
  switch i32 %13, label %30 [
    i32 32, label %14
    i32 33, label %ipv4_is_rfc1918.exit
  ]

14:                                               ; preds = %.lr.ph.i
  %15 = tail call ptr @fvalue_get_ipv4(ptr noundef %12)
  %16 = load i32, ptr %15, align 4
  %17 = and i32 %16, -16777216
  %18 = icmp eq i32 %17, 167772160
  br i1 %18, label %ipv4_is_rfc1918.exit, label %19

19:                                               ; preds = %14
  %20 = tail call ptr @fvalue_get_ipv4(ptr noundef %12)
  %21 = load i32, ptr %20, align 4
  %22 = and i32 %21, -1048576
  %23 = icmp eq i32 %22, -1408237568
  br i1 %23, label %ipv4_is_rfc1918.exit, label %24

24:                                               ; preds = %19
  %25 = tail call ptr @fvalue_get_ipv4(ptr noundef %12)
  %26 = load i32, ptr %25, align 4
  %27 = and i32 %26, -65536
  %28 = icmp eq i32 %27, -1062731776
  %29 = zext i1 %28 to i64
  br label %ipv4_is_rfc1918.exit

30:                                               ; preds = %.lr.ph.i
  tail call void (ptr, i32, ptr, i64, ptr, ptr, ...) @ws_log_fatal_full(ptr noundef nonnull @.str.2, i32 noundef 7, ptr noundef nonnull @.str.3, i64 noundef 145, ptr noundef nonnull @__func__.ipv4_is_rfc1918, ptr noundef nonnull @.str.4) #7
  unreachable

ipv4_is_rfc1918.exit:                             ; preds = %.lr.ph.i, %14, %19, %24
  %.0.i = phi i64 [ 1, %19 ], [ 1, %14 ], [ %29, %24 ], [ 0, %.lr.ph.i ]
  tail call void @fvalue_set_uinteger64(ptr noundef %9, i64 noundef %.0.i)
  tail call void @df_cell_append(ptr noundef %2, ptr noundef %9)
  %indvars.iv.next.i = add nuw nsw i64 %indvars.iv.i, 1
  %31 = load i32, ptr %5, align 8
  %32 = zext i32 %31 to i64
  %33 = icmp samesign ult i64 %indvars.iv.next.i, %32
  br i1 %33, label %.lr.ph.i, label %._crit_edge.i, !llvm.loop !11

df_func_ip_is_any.exit:                           ; preds = %3, %._crit_edge.i
  %.012.i = phi i1 [ %8, %._crit_edge.i ], [ false, %3 ]
  ret i1 %.012.i
}